; Function Attrs: mustprogress uwtable
define hidden void @_ZNK3euf6etable13display_unaryERSoPv(ptr nocapture noundef nonnull readnone align 8 dereferenceable(48) %this, ptr noundef nonnull align 8 dereferenceable(8) %out, ptr noundef %t) local_unnamed_addr #4 align 2 {
entry:
  %0 = ptrtoint ptr %t to i64
  %and = and i64 %0, -8
  %1 = inttoptr i64 %and to ptr
  %call = tail call noundef nonnull align 8 dereferenceable(8) ptr @_ZStlsISt11char_traitsIcEERSt13basic_ostreamIcT_ES5_PKc(ptr noundef nonnull align 8 dereferenceable(8) %out, ptr noundef nonnull @.str.6)
  %2 = load ptr, ptr %1, align 8, !noalias !31
  %m_slots.i = getelementptr inbounds i8, ptr %1, i64 20
  %3 = load i32, ptr %m_slots.i, align 4, !noalias !31
  %idx.ext.i = zext i32 %3 to i64
  %add.ptr.i = getelementptr inbounds %"struct.chashtable<euf::enode *, euf::etable::cg_unary_hash, euf::etable::cg_unary_eq>::cell", ptr %2, i64 %idx.ext.i
  %cmp.not3.i.i.i = icmp eq i32 %3, 0
  br i1 %cmp.not3.i.i.i, label %for.end, label %while.body.i.i.i

while.body.i.i.i:                                 ; preds = %entry, %if.end.i.i.i
  %__begin1.sroa.0.0 = phi ptr [ %incdec.ptr.i.i.i, %if.end.i.i.i ], [ %2, %entry ]
  %4 = load ptr, ptr %__begin1.sroa.0.0, align 8, !noalias !31
  %5 = ptrtoint ptr %4 to i64
  %and.i.i.i.i = and i64 %5, 7
  %cmp.i.i.i.i = icmp eq i64 %and.i.i.i.i, 1
  br i1 %cmp.i.i.i.i, label %if.end.i.i.i, label %for.body.outer

if.end.i.i.i:                                     ; preds = %while.body.i.i.i
  %incdec.ptr.i.i.i = getelementptr inbounds i8, ptr %__begin1.sroa.0.0, i64 16
  %cmp.not.i.i.i = icmp eq ptr %incdec.ptr.i.i.i, %add.ptr.i
  br i1 %cmp.not.i.i.i, label %for.end, label %while.body.i.i.i, !llvm.loop !18

for.body.outer:                                   ; preds = %while.body.i.i, %while.body.i.i.i
  %__begin1.sroa.0.211.ph = phi ptr [ %__begin1.sroa.0.0, %while.body.i.i.i ], [ %__begin1.sroa.0.3, %while.body.i.i ]
  br label %for.body

for.body:                                         ; preds = %for.body.outer, %for.body
  %__begin1.sroa.7.012 = phi ptr [ %9, %for.body ], [ %__begin1.sroa.0.211.ph, %for.body.outer ]
  %m_data.i = getelementptr inbounds i8, ptr %__begin1.sroa.7.012, i64 8
  %6 = load ptr, ptr %m_data.i, align 8
  %7 = load ptr, ptr %6, align 8
  %8 = load i32, ptr %7, align 4
  %call5 = tail call noundef nonnull align 8 dereferenceable(8) ptr @_ZNSolsEj(ptr noundef nonnull align 8 dereferenceable(8) %out, i32 noundef %8)
  %call6 = tail call noundef nonnull align 8 dereferenceable(8) ptr @_ZStlsISt11char_traitsIcEERSt13basic_ostreamIcT_ES5_PKc(ptr noundef nonnull align 8 dereferenceable(8) %call5, ptr noundef nonnull @.str.3)
  %9 = load ptr, ptr %__begin1.sroa.7.012, align 8
  %cmp.i6 = icmp eq ptr %9, null
  br i1 %cmp.i6, label %if.then.i, label %for.body

if.then.i:                                        ; preds = %for.body
  %incdec.ptr.i = getelementptr inbounds i8, ptr %__begin1.sroa.0.211.ph, i64 16
  %cmp.not3.i.i = icmp eq ptr %incdec.ptr.i, %add.ptr.i
  br i1 %cmp.not3.i.i, label %for.end, label %while.body.i.i

while.body.i.i:                                   ; preds = %if.then.i, %if.end.i.i
  %__begin1.sroa.0.3 = phi ptr [ %incdec.ptr.i.i, %if.end.i.i ], [ %incdec.ptr.i, %if.then.i ]
  %10 = load ptr, ptr %__begin1.sroa.0.3, align 8
  %11 = ptrtoint ptr %10 to i64
  %and.i.i.i = and i64 %11, 7
  %cmp.i.i.i = icmp eq i64 %and.i.i.i, 1
  br i1 %cmp.i.i.i, label %if.end.i.i, label %for.body.outer

if.end.i.i:                                       ; preds = %while.body.i.i
  %incdec.ptr.i.i = getelementptr inbounds i8, ptr %__begin1.sroa.0.3, i64 16
  %cmp.not.i.i = icmp eq ptr %incdec.ptr.i.i, %add.ptr.i
  br i1 %cmp.not.i.i, label %for.end, label %while.body.i.i, !llvm.loop !18

for.end:                                          ; preds = %if.end.i.i.i, %if.then.i, %if.end.i.i, %entry
  %call8 = tail call noundef nonnull align 8 dereferenceable(8) ptr @_ZStlsISt11char_traitsIcEERSt13basic_ostreamIcT_ES5_PKc(ptr noundef nonnull align 8 dereferenceable(8) %out, ptr noundef nonnull @.str.4)
  ret void
}